target datalayout = "e-m:e-p270:32:32-p271:32:32-p272:64:64-i64:64-i128:128-f80:128-n8:16:32:64-S128"
target triple = "x86_64-pc-linux-gnu"

%struct.x509_st = type { ptr, ptr, ptr, i32, i32, ptr, %struct.crypto_ex_data_st, i64, i64, i64, i64, i64, i64, ptr, ptr, ptr, ptr, ptr, ptr, [20 x i8], ptr }
%struct.crypto_ex_data_st = type { ptr }
%struct.x509_cinf_st = type { ptr, ptr, ptr, ptr, ptr, ptr, ptr, ptr, ptr, ptr, %struct.ASN1_ENCODING_st }
%struct.ASN1_ENCODING_st = type { ptr, i64, i32 }
%struct.asn1_string_st = type { i32, i32, ptr, i64 }
%struct.X509_pubkey_st = type { ptr, ptr, ptr }

@.str.12 = private unnamed_addr constant [2 x i8] c"\0A\00", align 1
@.str.23 = private unnamed_addr constant [28 x i8] c"        Subject OCSP hash: \00", align 1
@.str.24 = private unnamed_addr constant [5 x i8] c"%02X\00", align 1
@.str.25 = private unnamed_addr constant [32 x i8] c"\0A        Public key OCSP hash: \00", align 1

; Function Attrs: nounwind uwtable
define hidden i32 @X509_ocspid_print(ptr noundef %0, ptr noundef %1) #0 {
  %3 = alloca i32, align 4
  %4 = alloca ptr, align 8
  %5 = alloca ptr, align 8
  %6 = alloca ptr, align 8
  %7 = alloca ptr, align 8
  %8 = alloca i32, align 4
  %9 = alloca i32, align 4
  %10 = alloca [20 x i8], align 16
  %11 = alloca i32, align 4
  store ptr %0, ptr %4, align 8, !tbaa !15
  store ptr %1, ptr %5, align 8, !tbaa !11
  call void @llvm.lifetime.start.p0(i64 8, ptr %6) #5
  store ptr null, ptr %6, align 8, !tbaa !19
  call void @llvm.lifetime.start.p0(i64 8, ptr %7) #5
  call void @llvm.lifetime.start.p0(i64 4, ptr %8) #5
  call void @llvm.lifetime.start.p0(i64 4, ptr %9) #5
  call void @llvm.lifetime.start.p0(i64 20, ptr %10) #5
  %12 = load ptr, ptr %4, align 8, !tbaa !15
  %13 = call i32 (ptr, ptr, ...) @BIO_printf(ptr noundef %12, ptr noundef @.str.23)
  %14 = icmp sle i32 %13, 0
  br i1 %14, label %15, label %16

15:                                               ; preds = %2
  br label %113

16:                                               ; preds = %2
  %17 = load ptr, ptr %5, align 8, !tbaa !11
  %18 = getelementptr inbounds nuw %struct.x509_st, ptr %17, i32 0, i32 0
  %19 = load ptr, ptr %18, align 8, !tbaa !24
  %20 = getelementptr inbounds nuw %struct.x509_cinf_st, ptr %19, i32 0, i32 5
  %21 = load ptr, ptr %20, align 8, !tbaa !71
  %22 = call i32 @i2d_X509_NAME(ptr noundef %21, ptr noundef null)
  store i32 %22, ptr %8, align 4, !tbaa !17
  %23 = load i32, ptr %8, align 4, !tbaa !17
  %24 = sext i32 %23 to i64
  %25 = call noalias ptr @malloc(i64 noundef %24) #6
  store ptr %25, ptr %7, align 8, !tbaa !19
  store ptr %25, ptr %6, align 8, !tbaa !19
  %26 = icmp eq ptr %25, null
  br i1 %26, label %27, label %28

27:                                               ; preds = %16
  br label %113

28:                                               ; preds = %16
  %29 = load ptr, ptr %5, align 8, !tbaa !11
  %30 = getelementptr inbounds nuw %struct.x509_st, ptr %29, i32 0, i32 0
  %31 = load ptr, ptr %30, align 8, !tbaa !24
  %32 = getelementptr inbounds nuw %struct.x509_cinf_st, ptr %31, i32 0, i32 5
  %33 = load ptr, ptr %32, align 8, !tbaa !71
  %34 = call i32 @i2d_X509_NAME(ptr noundef %33, ptr noundef %7)
  %35 = load ptr, ptr %6, align 8, !tbaa !19
  %36 = load i32, ptr %8, align 4, !tbaa !17
  %37 = sext i32 %36 to i64
  %38 = getelementptr inbounds [20 x i8], ptr %10, i64 0, i64 0
  %39 = call ptr @EVP_sha1()
  %40 = call i32 @EVP_Digest(ptr noundef %35, i64 noundef %37, ptr noundef %38, ptr noundef null, ptr noundef %39, ptr noundef null)
  %41 = icmp ne i32 %40, 0
  br i1 %41, label %43, label %42

42:                                               ; preds = %28
  br label %113

43:                                               ; preds = %28
  store i32 0, ptr %9, align 4, !tbaa !17
  br label %44

44:                                               ; preds = %58, %43
  %45 = load i32, ptr %9, align 4, !tbaa !17
  %46 = icmp slt i32 %45, 20
  br i1 %46, label %47, label %61

47:                                               ; preds = %44
  %48 = load ptr, ptr %4, align 8, !tbaa !15
  %49 = load i32, ptr %9, align 4, !tbaa !17
  %50 = sext i32 %49 to i64
  %51 = getelementptr inbounds [20 x i8], ptr %10, i64 0, i64 %50
  %52 = load i8, ptr %51, align 1, !tbaa !21
  %53 = zext i8 %52 to i32
  %54 = call i32 (ptr, ptr, ...) @BIO_printf(ptr noundef %48, ptr noundef @.str.24, i32 noundef %53)
  %55 = icmp sle i32 %54, 0
  br i1 %55, label %56, label %57

56:                                               ; preds = %47
  br label %113

57:                                               ; preds = %47
  br label %58

58:                                               ; preds = %57
  %59 = load i32, ptr %9, align 4, !tbaa !17
  %60 = add nsw i32 %59, 1
  store i32 %60, ptr %9, align 4, !tbaa !17
  br label %44, !llvm.loop !72

61:                                               ; preds = %44
  %62 = load ptr, ptr %6, align 8, !tbaa !19
  call void @free(ptr noundef %62) #5
  store ptr null, ptr %6, align 8, !tbaa !19
  %63 = load ptr, ptr %4, align 8, !tbaa !15
  %64 = call i32 (ptr, ptr, ...) @BIO_printf(ptr noundef %63, ptr noundef @.str.25)
  %65 = icmp sle i32 %64, 0
  br i1 %65, label %66, label %67

66:                                               ; preds = %61
  br label %113

67:                                               ; preds = %61
  %68 = load ptr, ptr %5, align 8, !tbaa !11
  %69 = getelementptr inbounds nuw %struct.x509_st, ptr %68, i32 0, i32 0
  %70 = load ptr, ptr %69, align 8, !tbaa !24
  %71 = getelementptr inbounds nuw %struct.x509_cinf_st, ptr %70, i32 0, i32 6
  %72 = load ptr, ptr %71, align 8, !tbaa !57
  %73 = getelementptr inbounds nuw %struct.X509_pubkey_st, ptr %72, i32 0, i32 1
  %74 = load ptr, ptr %73, align 8, !tbaa !73
  %75 = getelementptr inbounds nuw %struct.asn1_string_st, ptr %74, i32 0, i32 2
  %76 = load ptr, ptr %75, align 8, !tbaa !48
  %77 = load ptr, ptr %5, align 8, !tbaa !11
  %78 = getelementptr inbounds nuw %struct.x509_st, ptr %77, i32 0, i32 0
  %79 = load ptr, ptr %78, align 8, !tbaa !24
  %80 = getelementptr inbounds nuw %struct.x509_cinf_st, ptr %79, i32 0, i32 6
  %81 = load ptr, ptr %80, align 8, !tbaa !57
  %82 = getelementptr inbounds nuw %struct.X509_pubkey_st, ptr %81, i32 0, i32 1
  %83 = load ptr, ptr %82, align 8, !tbaa !73
  %84 = getelementptr inbounds nuw %struct.asn1_string_st, ptr %83, i32 0, i32 0
  %85 = load i32, ptr %84, align 8, !tbaa !46
  %86 = sext i32 %85 to i64
  %87 = getelementptr inbounds [20 x i8], ptr %10, i64 0, i64 0
  %88 = call ptr @EVP_sha1()
  %89 = call i32 @EVP_Digest(ptr noundef %76, i64 noundef %86, ptr noundef %87, ptr noundef null, ptr noundef %88, ptr noundef null)
  %90 = icmp ne i32 %89, 0
  br i1 %90, label %92, label %91

91:                                               ; preds = %67
  br label %113

92:                                               ; preds = %67
  store i32 0, ptr %9, align 4, !tbaa !17
  br label %93

93:                                               ; preds = %107, %92
  %94 = load i32, ptr %9, align 4, !tbaa !17
  %95 = icmp slt i32 %94, 20
  br i1 %95, label %96, label %110

96:                                               ; preds = %93
  %97 = load ptr, ptr %4, align 8, !tbaa !15
  %98 = load i32, ptr %9, align 4, !tbaa !17
  %99 = sext i32 %98 to i64
  %100 = getelementptr inbounds [20 x i8], ptr %10, i64 0, i64 %99
  %101 = load i8, ptr %100, align 1, !tbaa !21
  %102 = zext i8 %101 to i32
  %103 = call i32 (ptr, ptr, ...) @BIO_printf(ptr noundef %97, ptr noundef @.str.24, i32 noundef %102)
  %104 = icmp sle i32 %103, 0
  br i1 %104, label %105, label %106

105:                                              ; preds = %96
  br label %113

106:                                              ; preds = %96
  br label %107

107:                                              ; preds = %106
  %108 = load i32, ptr %9, align 4, !tbaa !17
  %109 = add nsw i32 %108, 1
  store i32 %109, ptr %9, align 4, !tbaa !17
  br label %93, !llvm.loop !74

110:                                              ; preds = %93
  %111 = load ptr, ptr %4, align 8, !tbaa !15
  %112 = call i32 (ptr, ptr, ...) @BIO_printf(ptr noundef %111, ptr noundef @.str.12)
  store i32 1, ptr %3, align 4
  store i32 1, ptr %11, align 4
  br label %119

113:                                              ; preds = %105, %91, %66, %56, %42, %27, %15
  %114 = load ptr, ptr %6, align 8, !tbaa !19
  %115 = icmp ne ptr %114, null
  br i1 %115, label %116, label %118

116:                                              ; preds = %113
  %117 = load ptr, ptr %6, align 8, !tbaa !19
  call void @free(ptr noundef %117) #5
  br label %118

118:                                              ; preds = %116, %113
  store i32 0, ptr %3, align 4
  store i32 1, ptr %11, align 4
  br label %119

119:                                              ; preds = %118, %110
  call void @llvm.lifetime.end.p0(i64 20, ptr %10) #5
  call void @llvm.lifetime.end.p0(i64 4, ptr %9) #5
  call void @llvm.lifetime.end.p0(i64 4, ptr %8) #5
  call void @llvm.lifetime.end.p0(i64 8, ptr %7) #5
  call void @llvm.lifetime.end.p0(i64 8, ptr %6) #5
  %120 = load i32, ptr %3, align 4
  ret i32 %120
}