; Function Attrs: nounwind uwtable
define hidden range(i32 0, 2) i32 @X509_ocspid_print(ptr noundef %0, ptr noundef readonly captures(none) %1) local_unnamed_addr #0 {
  %3 = alloca ptr, align 8
  %4 = alloca [20 x i8], align 16
  call void @llvm.lifetime.start.p0(i64 8, ptr nonnull %3) #5
  call void @llvm.lifetime.start.p0(i64 20, ptr nonnull %4) #5
  %5 = tail call i32 (ptr, ptr, ...) @BIO_printf(ptr noundef %0, ptr noundef nonnull @.str.23) #5
  %6 = icmp slt i32 %5, 1
  br i1 %6, label %.thread, label %7

7:                                                ; preds = %2
  %8 = load ptr, ptr %1, align 8, !tbaa !6
  %9 = getelementptr inbounds nuw i8, ptr %8, i64 40
  %10 = load ptr, ptr %9, align 8, !tbaa !58
  %11 = tail call i32 @i2d_X509_NAME(ptr noundef %10, ptr noundef null) #5
  %12 = sext i32 %11 to i64
  %13 = tail call noalias ptr @malloc(i64 noundef %12) #6
  store ptr %13, ptr %3, align 8, !tbaa !59
  %14 = icmp eq ptr %13, null
  br i1 %14, label %.thread, label %15

15:                                               ; preds = %7
  %16 = load ptr, ptr %1, align 8, !tbaa !6
  %17 = getelementptr inbounds nuw i8, ptr %16, i64 40
  %18 = load ptr, ptr %17, align 8, !tbaa !58
  %19 = call i32 @i2d_X509_NAME(ptr noundef %18, ptr noundef nonnull %3) #5
  %20 = call ptr @EVP_sha1() #5
  %21 = call i32 @EVP_Digest(ptr noundef nonnull %13, i64 noundef %12, ptr noundef nonnull %4, ptr noundef null, ptr noundef %20, ptr noundef null) #5
  %.not = icmp eq i32 %21, 0
  br i1 %.not, label %.thread29, label %.preheader33

22:                                               ; preds = %.preheader33
  %indvars.iv.next = add nuw nsw i64 %indvars.iv, 1
  %exitcond.not = icmp eq i64 %indvars.iv.next, 20
  br i1 %exitcond.not, label %28, label %.preheader33, !llvm.loop !60

.preheader33:                                     ; preds = %15, %22
  %indvars.iv = phi i64 [ %indvars.iv.next, %22 ], [ 0, %15 ]
  %23 = getelementptr inbounds nuw [20 x i8], ptr %4, i64 0, i64 %indvars.iv
  %24 = load i8, ptr %23, align 1, !tbaa !35
  %25 = zext i8 %24 to i32
  %26 = call i32 (ptr, ptr, ...) @BIO_printf(ptr noundef %0, ptr noundef nonnull @.str.24, i32 noundef %25) #5
  %27 = icmp slt i32 %26, 1
  br i1 %27, label %.thread29, label %22

28:                                               ; preds = %22
  call void @free(ptr noundef %13) #5
  %29 = call i32 (ptr, ptr, ...) @BIO_printf(ptr noundef %0, ptr noundef nonnull @.str.25) #5
  %30 = icmp slt i32 %29, 1
  br i1 %30, label %.thread, label %31

31:                                               ; preds = %28
  %32 = load ptr, ptr %1, align 8, !tbaa !6
  %33 = getelementptr inbounds nuw i8, ptr %32, i64 48
  %34 = load ptr, ptr %33, align 8, !tbaa !48
  %35 = getelementptr inbounds nuw i8, ptr %34, i64 8
  %36 = load ptr, ptr %35, align 8, !tbaa !61
  %37 = getelementptr inbounds nuw i8, ptr %36, i64 8
  %38 = load ptr, ptr %37, align 8, !tbaa !34
  %39 = load i32, ptr %36, align 8, !tbaa !32
  %40 = sext i32 %39 to i64
  %41 = call ptr @EVP_sha1() #5
  %42 = call i32 @EVP_Digest(ptr noundef %38, i64 noundef %40, ptr noundef nonnull %4, ptr noundef null, ptr noundef %41, ptr noundef null) #5
  %.not25 = icmp eq i32 %42, 0
  br i1 %.not25, label %.thread, label %.preheader

43:                                               ; preds = %.preheader
  %indvars.iv.next38 = add nuw nsw i64 %indvars.iv37, 1
  %exitcond40.not = icmp eq i64 %indvars.iv.next38, 20
  br i1 %exitcond40.not, label %49, label %.preheader, !llvm.loop !62

.preheader:                                       ; preds = %31, %43
  %indvars.iv37 = phi i64 [ %indvars.iv.next38, %43 ], [ 0, %31 ]
  %44 = getelementptr inbounds nuw [20 x i8], ptr %4, i64 0, i64 %indvars.iv37
  %45 = load i8, ptr %44, align 1, !tbaa !35
  %46 = zext i8 %45 to i32
  %47 = call i32 (ptr, ptr, ...) @BIO_printf(ptr noundef %0, ptr noundef nonnull @.str.24, i32 noundef %46) #5
  %48 = icmp slt i32 %47, 1
  br i1 %48, label %.thread, label %43

49:                                               ; preds = %43
  %50 = call i32 (ptr, ptr, ...) @BIO_printf(ptr noundef %0, ptr noundef nonnull @.str.12) #5
  br label %.thread

.thread29:                                        ; preds = %.preheader33, %15
  call void @free(ptr noundef nonnull %13) #5
  br label %.thread

.thread:                                          ; preds = %.preheader, %31, %28, %7, %2, %.thread29, %49
  %.021 = phi i32 [ 1, %49 ], [ 0, %.thread29 ], [ 0, %2 ], [ 0, %7 ], [ 0, %28 ], [ 0, %31 ], [ 0, %.preheader ]
  call void @llvm.lifetime.end.p0(i64 20, ptr nonnull %4) #5
  call void @llvm.lifetime.end.p0(i64 8, ptr nonnull %3) #5
  ret i32 %.021
}